target datalayout = "e-m:e-p270:32:32-p271:32:32-p272:64:64-i64:64-i128:128-f80:128-n8:16:32:64-S128"
target triple = "x86_64-pc-linux-gnu"

%struct.expert_field = type { i32, i32 }
%struct.ansi_a_shared_data_t = type { ptr, ptr, ptr, i8, i8, %struct._address, i32, %struct.e_in6_addr, i16, i8 }
%struct._address = type { i32, i32, ptr, ptr }
%struct.e_in6_addr = type { [16 x i8] }

@.str.282 = private unnamed_addr constant [1 x i8] zeroinitializer, align 1
@ei_ansi_a_extraneous_data = internal global %struct.expert_field zeroinitializer, align 4
@hf_ansi_a_cell_id_disc = internal global i32 0, align 4
@ett_cell_list = internal global i32 0, align 4
@.str.1147 = private unnamed_addr constant [10 x i8] c"Cell [%u]\00", align 1
@.str.1148 = private unnamed_addr constant [13 x i8] c" - %u cell%s\00", align 1
@.str.1149 = private unnamed_addr constant [2 x i8] c"s\00", align 1

; Function Attrs: null_pointer_is_valid sspstrong uwtable
define internal zeroext i8 @elem_cell_id_list(ptr noundef %0, ptr noundef %1, ptr noundef %2, i32 noundef %3, i32 noundef %4, ptr noundef %5) #1 {
  %7 = alloca i8, align 1
  %8 = alloca ptr, align 8
  %9 = alloca ptr, align 8
  %10 = alloca ptr, align 8
  %11 = alloca i32, align 4
  %12 = alloca i32, align 4
  %13 = alloca ptr, align 8
  %14 = alloca i8, align 1
  %15 = alloca i16, align 2
  %16 = alloca i8, align 1
  %17 = alloca i32, align 4
  %18 = alloca ptr, align 8
  %19 = alloca ptr, align 8
  %20 = alloca i32, align 4
  store ptr %0, ptr %8, align 8
  store ptr %1, ptr %9, align 8
  store ptr %2, ptr %10, align 8
  store i32 %3, ptr %11, align 4
  store i32 %4, ptr %12, align 4
  store ptr %5, ptr %13, align 8
  call void @llvm.lifetime.start.p0(i64 1, ptr %14) #8
  call void @llvm.lifetime.start.p0(i64 2, ptr %15) #8
  call void @llvm.lifetime.start.p0(i64 1, ptr %16) #8
  call void @llvm.lifetime.start.p0(i64 4, ptr %17) #8
  call void @llvm.lifetime.start.p0(i64 8, ptr %18) #8
  call void @llvm.lifetime.start.p0(i64 8, ptr %19) #8
  %21 = load i32, ptr %11, align 4
  store i32 %21, ptr %17, align 4
  %22 = load ptr, ptr %10, align 8
  %23 = load i32, ptr @hf_ansi_a_cell_id_disc, align 4
  %24 = load ptr, ptr %8, align 8
  %25 = load i32, ptr %17, align 4
  %26 = call ptr @proto_tree_add_item(ptr noundef %22, i32 noundef %23, ptr noundef %24, i32 noundef %25, i32 noundef 1, i32 noundef 0)
  %27 = load ptr, ptr %8, align 8
  %28 = load i32, ptr %17, align 4
  %29 = call zeroext i8 @tvb_get_uint8(ptr noundef %27, i32 noundef %28)
  store i8 %29, ptr %14, align 1
  %30 = load i32, ptr %17, align 4
  %31 = add i32 %30, 1
  store i32 %31, ptr %17, align 4
  %32 = load i32, ptr %12, align 4
  %33 = load i32, ptr %17, align 4
  %34 = load i32, ptr %11, align 4
  %35 = sub i32 %33, %34
  %36 = icmp ule i32 %32, %35
  br i1 %36, label %37, label %40

37:                                               ; preds = %6
  %38 = load i32, ptr %12, align 4
  %39 = trunc i32 %38 to i8
  store i8 %39, ptr %7, align 1
  store i32 1, ptr %20, align 4
  br label %117

40:                                               ; preds = %6
  store i8 0, ptr %16, align 1
  br label %41

41:                                               ; preds = %72, %40
  %42 = load ptr, ptr %10, align 8
  %43 = load ptr, ptr %8, align 8
  %44 = load i32, ptr %17, align 4
  %45 = load i32, ptr @ett_cell_list, align 4
  %46 = load i8, ptr %16, align 1
  %47 = zext i8 %46 to i32
  %48 = add i32 %47, 1
  %49 = call ptr (ptr, ptr, i32, i32, i32, ptr, ptr, ...) @proto_tree_add_subtree_format(ptr noundef %42, ptr noundef %43, i32 noundef %44, i32 noundef -1, i32 noundef %45, ptr noundef %18, ptr noundef @.str.1147, i32 noundef %48)
  store ptr %49, ptr %19, align 8
  %50 = load ptr, ptr %8, align 8
  %51 = load ptr, ptr %9, align 8
  %52 = load ptr, ptr %19, align 8
  %53 = load i32, ptr %17, align 4
  %54 = load i32, ptr %12, align 4
  %55 = load i32, ptr %17, align 4
  %56 = load i32, ptr %11, align 4
  %57 = sub i32 %55, %56
  %58 = sub i32 %54, %57
  %59 = load i8, ptr %14, align 1
  %60 = load ptr, ptr %18, align 8
  %61 = call zeroext i8 @elem_cell_id_aux(ptr noundef %50, ptr noundef %51, ptr noundef %52, i32 noundef %53, i32 noundef %58, i8 noundef zeroext %59, ptr noundef %60)
  %62 = zext i8 %61 to i16
  store i16 %62, ptr %15, align 2
  %63 = load ptr, ptr %18, align 8
  %64 = load i16, ptr %15, align 2
  %65 = zext i16 %64 to i32
  call void @proto_item_set_len(ptr noundef %63, i32 noundef %65)
  %66 = load i16, ptr %15, align 2
  %67 = zext i16 %66 to i32
  %68 = load i32, ptr %17, align 4
  %69 = add i32 %68, %67
  store i32 %69, ptr %17, align 4
  %70 = load i8, ptr %16, align 1
  %71 = add i8 %70, 1
  store i8 %71, ptr %16, align 1
  br label %72

72:                                               ; preds = %41
  %73 = load i32, ptr %12, align 4
  %74 = load i32, ptr %17, align 4
  %75 = load i32, ptr %11, align 4
  %76 = sub i32 %74, %75
  %77 = sub i32 %73, %76
  %78 = icmp ugt i32 %77, 0
  br i1 %78, label %41, label %79, !llvm.loop !20

79:                                               ; preds = %72
  %80 = load ptr, ptr %13, align 8
  %81 = getelementptr inbounds nuw %struct.ansi_a_shared_data_t, ptr %80, i32 0, i32 2
  %82 = load ptr, ptr %81, align 8
  %83 = load i8, ptr %16, align 1
  %84 = zext i8 %83 to i32
  %85 = load i8, ptr %16, align 1
  %86 = zext i8 %85 to i32
  %87 = icmp eq i32 %86, 1
  %88 = select i1 %87, ptr @.str.282, ptr @.str.1149
  call void (ptr, ptr, ...) @proto_item_append_text(ptr noundef %82, ptr noundef @.str.1148, i32 noundef %84, ptr noundef %88)
  %89 = load i32, ptr %12, align 4
  %90 = load i32, ptr %17, align 4
  %91 = load i32, ptr %11, align 4
  %92 = sub i32 %90, %91
  %93 = icmp ugt i32 %89, %92
  br i1 %93, label %94, label %112

94:                                               ; preds = %79
  %95 = load ptr, ptr %10, align 8
  %96 = load ptr, ptr %9, align 8
  %97 = load ptr, ptr %8, align 8
  %98 = load i32, ptr %17, align 4
  %99 = load i32, ptr %12, align 4
  %100 = load i32, ptr %17, align 4
  %101 = load i32, ptr %11, align 4
  %102 = sub i32 %100, %101
  %103 = sub i32 %99, %102
  %104 = call ptr @proto_tree_add_expert(ptr noundef %95, ptr noundef %96, ptr noundef @ei_ansi_a_extraneous_data, ptr noundef %97, i32 noundef %98, i32 noundef %103)
  %105 = load i32, ptr %12, align 4
  %106 = load i32, ptr %17, align 4
  %107 = load i32, ptr %11, align 4
  %108 = sub i32 %106, %107
  %109 = sub i32 %105, %108
  %110 = load i32, ptr %17, align 4
  %111 = add i32 %110, %109
  store i32 %111, ptr %17, align 4
  br label %112

112:                                              ; preds = %94, %79
  %113 = load i32, ptr %17, align 4
  %114 = load i32, ptr %11, align 4
  %115 = sub i32 %113, %114
  %116 = trunc i32 %115 to i8
  store i8 %116, ptr %7, align 1
  store i32 1, ptr %20, align 4
  br label %117

117:                                              ; preds = %112, %37
  call void @llvm.lifetime.end.p0(i64 8, ptr %19) #8
  call void @llvm.lifetime.end.p0(i64 8, ptr %18) #8
  call void @llvm.lifetime.end.p0(i64 4, ptr %17) #8
  call void @llvm.lifetime.end.p0(i64 1, ptr %16) #8
  call void @llvm.lifetime.end.p0(i64 2, ptr %15) #8
  call void @llvm.lifetime.end.p0(i64 1, ptr %14) #8
  %118 = load i8, ptr %7, align 1
  ret i8 %118
}