; Function Attrs: null_pointer_is_valid sspstrong uwtable
define internal noundef zeroext i8 @elem_cell_id_list(ptr noundef %0, ptr noundef %1, ptr noundef %2, i32 noundef %3, i32 noundef %4, ptr noundef readonly captures(none) %5) #1 {
  %7 = alloca ptr, align 8
  call void @llvm.lifetime.start.p0(i64 8, ptr nonnull %7) #7
  %8 = load i32, ptr @hf_ansi_a_cell_id_disc, align 4
  %9 = tail call ptr @proto_tree_add_item(ptr noundef %2, i32 noundef %8, ptr noundef %0, i32 noundef %3, i32 noundef 1, i32 noundef 0)
  %10 = tail call zeroext i8 @tvb_get_uint8(ptr noundef %0, i32 noundef %3)
  %11 = icmp ult i32 %4, 2
  br i1 %11, label %33, label %12

12:                                               ; preds = %6
  %13 = add i32 %3, 1
  %.neg = add i32 %4, %3
  br label %14

14:                                               ; preds = %14, %12
  %.050 = phi i8 [ 0, %12 ], [ %25, %14 ]
  %.049 = phi i32 [ %13, %12 ], [ %24, %14 ]
  %15 = load i32, ptr @ett_cell_list, align 4
  %16 = zext i8 %.050 to i32
  %17 = add nuw nsw i32 %16, 1
  %18 = call ptr (ptr, ptr, i32, i32, i32, ptr, ptr, ...) @proto_tree_add_subtree_format(ptr noundef %2, ptr noundef %0, i32 noundef %.049, i32 noundef -1, i32 noundef %15, ptr noundef nonnull %7, ptr noundef nonnull @.str.1147, i32 noundef %17)
  %19 = sub i32 %.neg, %.049
  %20 = load ptr, ptr %7, align 8
  %21 = call fastcc zeroext i8 @elem_cell_id_aux(ptr noundef %0, ptr noundef %1, ptr noundef %18, i32 noundef %.049, i32 noundef %19, i8 noundef zeroext %10, ptr noundef %20)
  %22 = load ptr, ptr %7, align 8
  %23 = zext i8 %21 to i32
  call void @proto_item_set_len(ptr noundef %22, i32 noundef %23)
  %24 = add i32 %.049, %23
  %25 = add i8 %.050, 1
  %26 = sub i32 %24, %3
  %.not = icmp eq i32 %4, %26
  br i1 %.not, label %27, label %14, !llvm.loop !21

27:                                               ; preds = %14
  %28 = getelementptr inbounds nuw i8, ptr %5, i64 16
  %29 = load ptr, ptr %28, align 8
  %30 = zext i8 %25 to i32
  %31 = icmp eq i8 %.050, 0
  %32 = select i1 %31, ptr @.str.282, ptr @.str.1149
  call void (ptr, ptr, ...) @proto_item_append_text(ptr noundef %29, ptr noundef nonnull @.str.1148, i32 noundef %30, ptr noundef nonnull %32)
  br label %33

33:                                               ; preds = %6, %27
  %.0 = trunc i32 %4 to i8
  call void @llvm.lifetime.end.p0(i64 8, ptr nonnull %7) #7
  ret i8 %.0
}